target datalayout = "e-m:e-p270:32:32-p271:32:32-p272:64:64-i64:64-i128:128-f80:128-n8:16:32:64-S128"
target triple = "x86_64-pc-linux-gnu"

; Function Attrs: nounwind uwtable
define internal double @GetPSNR(double noundef %0, double noundef %1) #0 {
  %3 = alloca double, align 8
  %4 = alloca double, align 8
  store double %0, ptr %3, align 8
  store double %1, ptr %4, align 8
  %5 = load double, ptr %3, align 8
  %6 = fcmp ogt double %5, 0.000000e+00
  br i1 %6, label %7, label %18

7:                                                ; preds = %2
  %8 = load double, ptr %4, align 8
  %9 = fcmp ogt double %8, 0.000000e+00
  br i1 %9, label %10, label %18

10:                                               ; preds = %7
  %11 = load double, ptr %3, align 8
  %12 = load double, ptr %4, align 8
  %13 = fmul double %12, 2.550000e+02
  %14 = fmul double %13, 2.550000e+02
  %15 = fdiv double %11, %14
  %16 = call double @log(double noundef %15) #3
  %17 = fmul double 0xC0115F2CEBF15542, %16
  br label %19

18:                                               ; preds = %7, %2
  br label %19

19:                                               ; preds = %18, %10
  %20 = phi double [ %17, %10 ], [ 9.900000e+01, %18 ]
  ret double %20
}

; Function Attrs: nounwind uwtable
define internal double @GetLogSSIM(double noundef %0, double noundef %1) #0 {
  %3 = alloca double, align 8
  %4 = alloca double, align 8
  store double %0, ptr %3, align 8
  store double %1, ptr %4, align 8
  %5 = load double, ptr %4, align 8
  %6 = fcmp ogt double %5, 0.000000e+00
  br i1 %6, label %7, label %11

7:                                                ; preds = %2
  %8 = load double, ptr %3, align 8
  %9 = load double, ptr %4, align 8
  %10 = fdiv double %8, %9
  br label %12

11:                                               ; preds = %2
  br label %12

12:                                               ; preds = %11, %7
  %13 = phi double [ %10, %7 ], [ 1.000000e+00, %11 ]
  store double %13, ptr %3, align 8
  %14 = load double, ptr %3, align 8
  %15 = fcmp olt double %14, 1.000000e+00
  br i1 %15, label %16, label %21

16:                                               ; preds = %12
  %17 = load double, ptr %3, align 8
  %18 = fsub double 1.000000e+00, %17
  %19 = call double @log10(double noundef %18) #3
  %20 = fmul double -1.000000e+01, %19
  br label %22

21:                                               ; preds = %12
  br label %22

22:                                               ; preds = %21, %16
  %23 = phi double [ %20, %16 ], [ 9.900000e+01, %21 ]
  ret double %23
}

; Function Attrs: nounwind uwtable
define i32 @WebPPlaneDistortion(ptr noundef %0, i64 noundef %1, ptr noundef %2, i64 noundef %3, i32 noundef %4, i32 noundef %5, i64 noundef %6, i32 noundef %7, ptr noundef %8, ptr noundef %9) #0 {
  %11 = alloca i32, align 4
  %12 = alloca ptr, align 8
  %13 = alloca i64, align 8
  %14 = alloca ptr, align 8
  %15 = alloca i64, align 8
  %16 = alloca i32, align 4
  %17 = alloca i32, align 4
  %18 = alloca i64, align 8
  %19 = alloca i32, align 4
  %20 = alloca ptr, align 8
  %21 = alloca ptr, align 8
  %22 = alloca ptr, align 8
  %23 = alloca ptr, align 8
  %24 = alloca i32, align 4
  %25 = alloca i32, align 4
  %26 = alloca ptr, align 8
  %27 = alloca ptr, align 8
  store ptr %0, ptr %12, align 8
  store i64 %1, ptr %13, align 8
  store ptr %2, ptr %14, align 8
  store i64 %3, ptr %15, align 8
  store i32 %4, ptr %16, align 4
  store i32 %5, ptr %17, align 4
  store i64 %6, ptr %18, align 8
  store i32 %7, ptr %19, align 4
  store ptr %8, ptr %20, align 8
  store ptr %9, ptr %21, align 8
  store ptr null, ptr %22, align 8
  %28 = load i32, ptr %19, align 4
  %29 = icmp eq i32 %28, 0
  br i1 %29, label %30, label %31

30:                                               ; preds = %10
  br label %35

31:                                               ; preds = %10
  %32 = load i32, ptr %19, align 4
  %33 = icmp eq i32 %32, 1
  %34 = select i1 %33, ptr @AccumulateSSIM, ptr @AccumulateLSIM
  br label %35

35:                                               ; preds = %31, %30
  %36 = phi ptr [ @AccumulateSSE, %30 ], [ %34, %31 ]
  store ptr %36, ptr %23, align 8
  %37 = load ptr, ptr %12, align 8
  %38 = icmp eq ptr %37, null
  br i1 %38, label %62, label %39

39:                                               ; preds = %35
  %40 = load ptr, ptr %14, align 8
  %41 = icmp eq ptr %40, null
  br i1 %41, label %62, label %42

42:                                               ; preds = %39
  %43 = load i64, ptr %13, align 8
  %44 = load i64, ptr %18, align 8
  %45 = load i32, ptr %16, align 4
  %46 = sext i32 %45 to i64
  %47 = mul i64 %44, %46
  %48 = icmp ult i64 %43, %47
  br i1 %48, label %62, label %49

49:                                               ; preds = %42
  %50 = load i64, ptr %15, align 8
  %51 = load i64, ptr %18, align 8
  %52 = load i32, ptr %16, align 4
  %53 = sext i32 %52 to i64
  %54 = mul i64 %51, %53
  %55 = icmp ult i64 %50, %54
  br i1 %55, label %62, label %56

56:                                               ; preds = %49
  %57 = load ptr, ptr %21, align 8
  %58 = icmp eq ptr %57, null
  br i1 %58, label %62, label %59

59:                                               ; preds = %56
  %60 = load ptr, ptr %20, align 8
  %61 = icmp eq ptr %60, null
  br i1 %61, label %62, label %63

62:                                               ; preds = %59, %56, %49, %42, %39, %35
  store i32 0, ptr %11, align 4
  br label %185

63:                                               ; preds = %59
  call void @VP8SSIMDspInit()
  %64 = load i64, ptr %18, align 8
  %65 = icmp ne i64 %64, 1
  br i1 %65, label %66, label %146

66:                                               ; preds = %63
  %67 = load i32, ptr %16, align 4
  %68 = sext i32 %67 to i64
  %69 = mul i64 2, %68
  %70 = load i32, ptr %17, align 4
  %71 = sext i32 %70 to i64
  %72 = mul i64 %69, %71
  %73 = call ptr @WebPSafeMalloc(i64 noundef %72, i64 noundef 1)
  store ptr %73, ptr %22, align 8
  %74 = load ptr, ptr %22, align 8
  %75 = icmp eq ptr %74, null
  br i1 %75, label %76, label %77

76:                                               ; preds = %66
  store i32 0, ptr %11, align 4
  br label %185

77:                                               ; preds = %66
  %78 = load ptr, ptr %22, align 8
  store ptr %78, ptr %26, align 8
  %79 = load ptr, ptr %26, align 8
  %80 = load i32, ptr %16, align 4
  %81 = sext i32 %80 to i64
  %82 = load i32, ptr %17, align 4
  %83 = sext i32 %82 to i64
  %84 = mul i64 %81, %83
  %85 = getelementptr inbounds i8, ptr %79, i64 %84
  store ptr %85, ptr %27, align 8
  store i32 0, ptr %25, align 4
  br label %86

86:                                               ; preds = %140, %77
  %87 = load i32, ptr %25, align 4
  %88 = load i32, ptr %17, align 4
  %89 = icmp slt i32 %87, %88
  br i1 %89, label %90, label %143

90:                                               ; preds = %86
  store i32 0, ptr %24, align 4
  br label %91

91:                                               ; preds = %136, %90
  %92 = load i32, ptr %24, align 4
  %93 = load i32, ptr %16, align 4
  %94 = icmp slt i32 %92, %93
  br i1 %94, label %95, label %139

95:                                               ; preds = %91
  %96 = load ptr, ptr %12, align 8
  %97 = load i32, ptr %24, align 4
  %98 = sext i32 %97 to i64
  %99 = load i64, ptr %18, align 8
  %100 = mul i64 %98, %99
  %101 = load i32, ptr %25, align 4
  %102 = sext i32 %101 to i64
  %103 = load i64, ptr %13, align 8
  %104 = mul i64 %102, %103
  %105 = add i64 %100, %104
  %106 = getelementptr inbounds i8, ptr %96, i64 %105
  %107 = load i8, ptr %106, align 1
  %108 = load ptr, ptr %26, align 8
  %109 = load i32, ptr %24, align 4
  %110 = load i32, ptr %25, align 4
  %111 = load i32, ptr %16, align 4
  %112 = mul nsw i32 %110, %111
  %113 = add nsw i32 %109, %112
  %114 = sext i32 %113 to i64
  %115 = getelementptr inbounds i8, ptr %108, i64 %114
  store i8 %107, ptr %115, align 1
  %116 = load ptr, ptr %14, align 8
  %117 = load i32, ptr %24, align 4
  %118 = sext i32 %117 to i64
  %119 = load i64, ptr %18, align 8
  %120 = mul i64 %118, %119
  %121 = load i32, ptr %25, align 4
  %122 = sext i32 %121 to i64
  %123 = load i64, ptr %15, align 8
  %124 = mul i64 %122, %123
  %125 = add i64 %120, %124
  %126 = getelementptr inbounds i8, ptr %116, i64 %125
  %127 = load i8, ptr %126, align 1
  %128 = load ptr, ptr %27, align 8
  %129 = load i32, ptr %24, align 4
  %130 = load i32, ptr %25, align 4
  %131 = load i32, ptr %16, align 4
  %132 = mul nsw i32 %130, %131
  %133 = add nsw i32 %129, %132
  %134 = sext i32 %133 to i64
  %135 = getelementptr inbounds i8, ptr %128, i64 %134
  store i8 %127, ptr %135, align 1
  br label %136

136:                                              ; preds = %95
  %137 = load i32, ptr %24, align 4
  %138 = add nsw i32 %137, 1
  store i32 %138, ptr %24, align 4
  br label %91, !llvm.loop !4

139:                                              ; preds = %91
  br label %140

140:                                              ; preds = %139
  %141 = load i32, ptr %25, align 4
  %142 = add nsw i32 %141, 1
  store i32 %142, ptr %25, align 4
  br label %86, !llvm.loop !6

143:                                              ; preds = %86
  %144 = load ptr, ptr %26, align 8
  store ptr %144, ptr %12, align 8
  %145 = load ptr, ptr %27, align 8
  store ptr %145, ptr %14, align 8
  br label %146

146:                                              ; preds = %143, %63
  %147 = load ptr, ptr %23, align 8
  %148 = load ptr, ptr %12, align 8
  %149 = load i32, ptr %16, align 4
  %150 = load ptr, ptr %14, align 8
  %151 = load i32, ptr %16, align 4
  %152 = load i32, ptr %16, align 4
  %153 = load i32, ptr %17, align 4
  %154 = call double %147(ptr noundef %148, i32 noundef %149, ptr noundef %150, i32 noundef %151, i32 noundef %152, i32 noundef %153)
  %155 = fptrunc double %154 to float
  %156 = load ptr, ptr %20, align 8
  store float %155, ptr %156, align 4
  %157 = load ptr, ptr %22, align 8
  call void @WebPSafeFree(ptr noundef %157)
  %158 = load i32, ptr %19, align 4
  %159 = icmp eq i32 %158, 1
  br i1 %159, label %160, label %171

160:                                              ; preds = %146
  %161 = load ptr, ptr %20, align 8
  %162 = load float, ptr %161, align 4
  %163 = fpext float %162 to double
  %164 = load i32, ptr %16, align 4
  %165 = sitofp i32 %164 to double
  %166 = load i32, ptr %17, align 4
  %167 = sitofp i32 %166 to double
  %168 = fmul double %165, %167
  %169 = call double @GetLogSSIM(double noundef %163, double noundef %168)
  %170 = fptrunc double %169 to float
  br label %182

171:                                              ; preds = %146
  %172 = load ptr, ptr %20, align 8
  %173 = load float, ptr %172, align 4
  %174 = fpext float %173 to double
  %175 = load i32, ptr %16, align 4
  %176 = sitofp i32 %175 to double
  %177 = load i32, ptr %17, align 4
  %178 = sitofp i32 %177 to double
  %179 = fmul double %176, %178
  %180 = call double @GetPSNR(double noundef %174, double noundef %179)
  %181 = fptrunc double %180 to float
  br label %182

182:                                              ; preds = %171, %160
  %183 = phi float [ %170, %160 ], [ %181, %171 ]
  %184 = load ptr, ptr %21, align 8
  store float %183, ptr %184, align 4
  store i32 1, ptr %11, align 4
  br label %185

185:                                              ; preds = %182, %76, %62
  %186 = load i32, ptr %11, align 4
  ret i32 %186
}