; Function Attrs: nounwind uwtable
define range(i32 0, 2) i32 @WebPPlaneDistortion(ptr noundef %0, i64 noundef %1, ptr noundef %2, i64 noundef %3, i32 noundef %4, i32 noundef %5, i64 noundef %6, i32 noundef %7, ptr noundef %8, ptr noundef writeonly %9) local_unnamed_addr #0 {
  %11 = icmp eq i32 %7, 0
  %12 = icmp eq i32 %7, 1
  %13 = select i1 %12, ptr @AccumulateSSIM, ptr @AccumulateLSIM
  %14 = select i1 %11, ptr @AccumulateSSE, ptr %13
  %15 = icmp eq ptr %0, null
  %16 = icmp eq ptr %2, null
  %or.cond = or i1 %15, %16
  br i1 %or.cond, label %78, label %17

17:                                               ; preds = %10
  %18 = sext i32 %4 to i64
  %19 = mul i64 %18, %6
  %20 = icmp ugt i64 %19, %1
  br i1 %20, label %78, label %21

21:                                               ; preds = %17
  %22 = icmp ugt i64 %19, %3
  %23 = icmp eq ptr %9, null
  %or.cond3 = or i1 %22, %23
  %24 = icmp eq ptr %8, null
  %or.cond5 = or i1 %24, %or.cond3
  br i1 %or.cond5, label %78, label %25

25:                                               ; preds = %21
  tail call void @VP8SSIMDspInit() #5
  %.not = icmp eq i64 %6, 1
  br i1 %.not, label %.loopexit, label %26

26:                                               ; preds = %25
  %27 = shl nsw i64 %18, 1
  %28 = sext i32 %5 to i64
  %29 = mul i64 %27, %28
  %30 = tail call ptr @WebPSafeMalloc(i64 noundef %29, i64 noundef 1) #5
  %31 = icmp eq ptr %30, null
  br i1 %31, label %78, label %32

32:                                               ; preds = %26
  %33 = mul nsw i64 %28, %18
  %34 = getelementptr inbounds i8, ptr %30, i64 %33
  %35 = icmp sgt i32 %5, 0
  %36 = icmp sgt i32 %4, 0
  %or.cond94 = and i1 %35, %36
  br i1 %or.cond94, label %.preheader.us.preheader, label %.loopexit

.preheader.us.preheader:                          ; preds = %32
  %37 = zext nneg i32 %4 to i64
  %wide.trip.count92 = zext nneg i32 %5 to i64
  br label %.preheader.us

.preheader.us:                                    ; preds = %.preheader.us.preheader, %._crit_edge.us
  %indvars.iv89 = phi i64 [ 0, %.preheader.us.preheader ], [ %indvars.iv.next90, %._crit_edge.us ]
  %38 = mul i64 %indvars.iv89, %1
  %invariant.gep.us = getelementptr i8, ptr %0, i64 %38
  %39 = mul nuw nsw i64 %indvars.iv89, %37
  %40 = mul i64 %indvars.iv89, %3
  %invariant.gep84.us = getelementptr i8, ptr %2, i64 %40
  br label %41

41:                                               ; preds = %.preheader.us, %41
  %indvars.iv = phi i64 [ 0, %.preheader.us ], [ %indvars.iv.next, %41 ]
  %42 = mul i64 %indvars.iv, %6
  %gep.us = getelementptr i8, ptr %invariant.gep.us, i64 %42
  %43 = load i8, ptr %gep.us, align 1
  %44 = add nuw nsw i64 %indvars.iv, %39
  %45 = getelementptr inbounds i8, ptr %30, i64 %44
  store i8 %43, ptr %45, align 1
  %gep85.us = getelementptr i8, ptr %invariant.gep84.us, i64 %42
  %46 = load i8, ptr %gep85.us, align 1
  %47 = getelementptr inbounds i8, ptr %34, i64 %44
  store i8 %46, ptr %47, align 1
  %indvars.iv.next = add nuw nsw i64 %indvars.iv, 1
  %exitcond.not = icmp eq i64 %indvars.iv.next, %37
  br i1 %exitcond.not, label %._crit_edge.us, label %41, !llvm.loop !4

._crit_edge.us:                                   ; preds = %41
  %indvars.iv.next90 = add nuw nsw i64 %indvars.iv89, 1
  %exitcond93.not = icmp eq i64 %indvars.iv.next90, %wide.trip.count92
  br i1 %exitcond93.not, label %.loopexit, label %.preheader.us, !llvm.loop !6

.loopexit:                                        ; preds = %._crit_edge.us, %32, %25
  %.072 = phi ptr [ null, %25 ], [ %30, %32 ], [ %30, %._crit_edge.us ]
  %.071 = phi ptr [ %2, %25 ], [ %34, %32 ], [ %34, %._crit_edge.us ]
  %.068 = phi ptr [ %0, %25 ], [ %30, %32 ], [ %30, %._crit_edge.us ]
  %48 = tail call double %14(ptr noundef nonnull %.068, i32 noundef %4, ptr noundef %.071, i32 noundef %4, i32 noundef %4, i32 noundef %5) #5, !callees !7
  %49 = fptrunc double %48 to float
  store float %49, ptr %8, align 4
  tail call void @WebPSafeFree(ptr noundef %.072) #5
  %50 = load float, ptr %8, align 4
  br i1 %12, label %51, label %64

51:                                               ; preds = %.loopexit
  %52 = fpext float %50 to double
  %53 = sitofp i32 %4 to double
  %54 = sitofp i32 %5 to double
  %55 = fmul double %53, %54
  %56 = fcmp ogt double %55, 0.000000e+00
  %57 = fdiv double %52, %55
  %58 = select i1 %56, double %57, double 1.000000e+00
  %59 = fcmp olt double %58, 1.000000e+00
  br i1 %59, label %60, label %GetLogSSIM.exit

60:                                               ; preds = %51
  %61 = fsub double 1.000000e+00, %58
  %62 = tail call double @log10(double noundef %61) #5
  %63 = fmul double %62, -1.000000e+01
  br label %GetLogSSIM.exit

64:                                               ; preds = %.loopexit
  %65 = sitofp i32 %4 to double
  %66 = sitofp i32 %5 to double
  %67 = fmul double %65, %66
  %68 = fcmp ogt float %50, 0.000000e+00
  %69 = fcmp ogt double %67, 0.000000e+00
  %or.cond.i = and i1 %69, %68
  br i1 %or.cond.i, label %70, label %GetLogSSIM.exit

70:                                               ; preds = %64
  %71 = fpext float %50 to double
  %72 = fmul double %67, 2.550000e+02
  %73 = fmul double %72, 2.550000e+02
  %74 = fdiv double %71, %73
  %75 = tail call double @log(double noundef %74) #5
  %76 = fmul double %75, 0xC0115F2CEBF15542
  br label %GetLogSSIM.exit

GetLogSSIM.exit:                                  ; preds = %70, %64, %60, %51
  %.in = phi double [ %63, %60 ], [ 9.900000e+01, %51 ], [ %76, %70 ], [ 9.900000e+01, %64 ]
  %77 = fptrunc double %.in to float
  store float %77, ptr %9, align 4
  br label %78

78:                                               ; preds = %26, %10, %17, %21, %GetLogSSIM.exit
  %.0 = phi i32 [ 1, %GetLogSSIM.exit ], [ 0, %21 ], [ 0, %17 ], [ 0, %10 ], [ 0, %26 ]
  ret i32 %.0
}